; Function Attrs: nounwind uwtable
define range(i32 -2, 1) i32 @CVDiagGetLastFlag(ptr noundef %0, ptr noundef writeonly captures(none) %1) local_unnamed_addr #0 {
  %3 = icmp eq ptr %0, null
  br i1 %3, label %4, label %5

4:                                                ; preds = %2
  tail call void (ptr, i32, i32, ptr, ptr, ptr, ...) @cvProcessError(ptr noundef null, i32 noundef -1, i32 noundef 250, ptr noundef nonnull @__func__.CVDiagGetLastFlag, ptr noundef nonnull @.str, ptr noundef nonnull @.str.1) #8
  br label %13

5:                                                ; preds = %2
  %6 = getelementptr inbounds nuw i8, ptr %0, i64 2016
  %7 = load ptr, ptr %6, align 8, !tbaa !35
  %8 = icmp eq ptr %7, null
  br i1 %8, label %9, label %10

9:                                                ; preds = %5
  tail call void (ptr, i32, i32, ptr, ptr, ptr, ...) @cvProcessError(ptr noundef nonnull %0, i32 noundef -2, i32 noundef 258, ptr noundef nonnull @__func__.CVDiagGetLastFlag, ptr noundef nonnull @.str, ptr noundef nonnull @.str.4) #8
  br label %13

10:                                               ; preds = %5
  %11 = getelementptr inbounds nuw i8, ptr %7, i64 40
  %12 = load i64, ptr %11, align 8, !tbaa !30
  store i64 %12, ptr %1, align 8, !tbaa !49
  br label %13

13:                                               ; preds = %10, %9, %4
  %.0 = phi i32 [ -1, %4 ], [ -2, %9 ], [ 0, %10 ]
  ret i32 %.0
}